; Function Attrs: mustprogress uwtable
define internal noundef zeroext i1 @"_ZNSt17_Function_handlerIFvvEZZN2tf26make_transform_reduce_taskIN9__gnu_cxx17__normal_iteratorIP4DataSt6vectorIS5_SaIS5_EEEESA_iZ16transform_reducevE3$_0Z16transform_reducevE3$_1NS1_17GuidedPartitionerEEEDaT_T0_RT1_T2_T3_OT4_ENUlRNS1_7RuntimeEE_clESN_EUlvE_E10_M_managerERSt9_Any_dataRKSR_St18_Manager_operation"(ptr nocapture noundef nonnull align 8 dereferenceable(16) %__dest, ptr nocapture noundef nonnull readonly align 8 dereferenceable(16) %__source, i32 noundef %__op) #5 align 2 {
entry:
  switch i32 %__op, label %sw.epilog [
    i32 0, label %sw.bb
    i32 1, label %sw.bb1
    i32 3, label %sw.bb6.i
    i32 2, label %sw.bb4.i
  ]

sw.bb:                                            ; preds = %entry
  store ptr @"_ZTIZZN2tf26make_transform_reduce_taskIN9__gnu_cxx17__normal_iteratorIP4DataSt6vectorIS3_SaIS3_EEEES8_iZ16transform_reducevE3$_0Z16transform_reducevE3$_1NS_17GuidedPartitionerEEEDaT_T0_RT1_T2_T3_OT4_ENUlRNS_7RuntimeEE_clESL_EUlvE_", ptr %__dest, align 8
  br label %sw.epilog

sw.bb1:                                           ; preds = %entry
  %__source.val = load ptr, ptr %__source, align 8
  store ptr %__source.val, ptr %__dest, align 8
  br label %sw.epilog

sw.bb4.i:                                         ; preds = %entry
  %__source.val5 = load ptr, ptr %__source, align 8
  %call.i.i.i = tail call noalias noundef nonnull dereferenceable(72) ptr @_Znwm(i64 noundef 72) #28
  tail call void @llvm.memcpy.p0.p0.i64(ptr noundef nonnull align 16 dereferenceable(72) %call.i.i.i, ptr noundef nonnull align 8 dereferenceable(72) %__source.val5, i64 72, i1 false)
  store ptr %call.i.i.i, ptr %__dest, align 8
  br label %sw.epilog

sw.bb6.i:                                         ; preds = %entry
  %__dest.val.i = load ptr, ptr %__dest, align 8
  %isnull.i.i = icmp eq ptr %__dest.val.i, null
  br i1 %isnull.i.i, label %sw.epilog, label %delete.notnull.i.i

delete.notnull.i.i:                               ; preds = %sw.bb6.i
  tail call void @_ZdlPv(ptr noundef nonnull %__dest.val.i) #29
  br label %sw.epilog

sw.epilog:                                        ; preds = %entry, %delete.notnull.i.i, %sw.bb6.i, %sw.bb4.i, %sw.bb1, %sw.bb
  ret i1 false
}